target datalayout = "e-m:e-p270:32:32-p271:32:32-p272:64:64-i64:64-i128:128-f80:128-n8:16:32:64-S128"
target triple = "x86_64-pc-linux-gnu"

%struct._generic_N_Vector = type { ptr, ptr, ptr }
%struct._generic_N_Vector_Ops = type { ptr, ptr, ptr, ptr, ptr, ptr, ptr, ptr, ptr, ptr, ptr, ptr, ptr, ptr, ptr, ptr, ptr, ptr, ptr, ptr, ptr, ptr, ptr, ptr, ptr, ptr, ptr, ptr, ptr, ptr, ptr, ptr, ptr, ptr, ptr, ptr, ptr, ptr, ptr, ptr, ptr, ptr, ptr, ptr, ptr, ptr, ptr, ptr, ptr, ptr, ptr, ptr, ptr, ptr, ptr, ptr }

; Function Attrs: nounwind uwtable
define i32 @mriStep_CheckNVector(ptr noundef %0) #0 {
  %2 = alloca i32, align 4
  %3 = alloca ptr, align 8
  store ptr %0, ptr %3, align 8, !tbaa !9
  %4 = load ptr, ptr %3, align 8, !tbaa !9
  %5 = getelementptr inbounds nuw %struct._generic_N_Vector, ptr %4, i32 0, i32 1
  %6 = load ptr, ptr %5, align 8, !tbaa !115
  %7 = getelementptr inbounds nuw %struct._generic_N_Vector_Ops, ptr %6, i32 0, i32 1
  %8 = load ptr, ptr %7, align 8, !tbaa !118
  %9 = icmp eq ptr %8, null
  br i1 %9, label %45, label %10

10:                                               ; preds = %1
  %11 = load ptr, ptr %3, align 8, !tbaa !9
  %12 = getelementptr inbounds nuw %struct._generic_N_Vector, ptr %11, i32 0, i32 1
  %13 = load ptr, ptr %12, align 8, !tbaa !115
  %14 = getelementptr inbounds nuw %struct._generic_N_Vector_Ops, ptr %13, i32 0, i32 3
  %15 = load ptr, ptr %14, align 8, !tbaa !120
  %16 = icmp eq ptr %15, null
  br i1 %16, label %45, label %17

17:                                               ; preds = %10
  %18 = load ptr, ptr %3, align 8, !tbaa !9
  %19 = getelementptr inbounds nuw %struct._generic_N_Vector, ptr %18, i32 0, i32 1
  %20 = load ptr, ptr %19, align 8, !tbaa !115
  %21 = getelementptr inbounds nuw %struct._generic_N_Vector_Ops, ptr %20, i32 0, i32 11
  %22 = load ptr, ptr %21, align 8, !tbaa !121
  %23 = icmp eq ptr %22, null
  br i1 %23, label %45, label %24

24:                                               ; preds = %17
  %25 = load ptr, ptr %3, align 8, !tbaa !9
  %26 = getelementptr inbounds nuw %struct._generic_N_Vector, ptr %25, i32 0, i32 1
  %27 = load ptr, ptr %26, align 8, !tbaa !115
  %28 = getelementptr inbounds nuw %struct._generic_N_Vector_Ops, ptr %27, i32 0, i32 12
  %29 = load ptr, ptr %28, align 8, !tbaa !122
  %30 = icmp eq ptr %29, null
  br i1 %30, label %45, label %31

31:                                               ; preds = %24
  %32 = load ptr, ptr %3, align 8, !tbaa !9
  %33 = getelementptr inbounds nuw %struct._generic_N_Vector, ptr %32, i32 0, i32 1
  %34 = load ptr, ptr %33, align 8, !tbaa !115
  %35 = getelementptr inbounds nuw %struct._generic_N_Vector_Ops, ptr %34, i32 0, i32 15
  %36 = load ptr, ptr %35, align 8, !tbaa !123
  %37 = icmp eq ptr %36, null
  br i1 %37, label %45, label %38

38:                                               ; preds = %31
  %39 = load ptr, ptr %3, align 8, !tbaa !9
  %40 = getelementptr inbounds nuw %struct._generic_N_Vector, ptr %39, i32 0, i32 1
  %41 = load ptr, ptr %40, align 8, !tbaa !115
  %42 = getelementptr inbounds nuw %struct._generic_N_Vector_Ops, ptr %41, i32 0, i32 21
  %43 = load ptr, ptr %42, align 8, !tbaa !124
  %44 = icmp eq ptr %43, null
  br i1 %44, label %45, label %46

45:                                               ; preds = %38, %31, %24, %17, %10, %1
  store i32 0, ptr %2, align 4
  br label %47

46:                                               ; preds = %38
  store i32 1, ptr %2, align 4
  br label %47

47:                                               ; preds = %46, %45
  %48 = load i32, ptr %2, align 4
  ret i32 %48
}