; Function Attrs: mustprogress nofree norecurse nosync nounwind willreturn memory(read, inaccessiblemem: none) uwtable
define range(i32 0, 2) i32 @mriStep_CheckNVector(ptr noundef readonly captures(none) %0) local_unnamed_addr #3 {
  %2 = getelementptr inbounds nuw i8, ptr %0, i64 8
  %3 = load ptr, ptr %2, align 8, !tbaa !3
  %4 = getelementptr inbounds nuw i8, ptr %3, i64 8
  %5 = load ptr, ptr %4, align 8, !tbaa !10
  %6 = icmp eq ptr %5, null
  br i1 %6, label %27, label %7

7:                                                ; preds = %1
  %8 = getelementptr inbounds nuw i8, ptr %3, i64 24
  %9 = load ptr, ptr %8, align 8, !tbaa !12
  %10 = icmp eq ptr %9, null
  br i1 %10, label %27, label %11

11:                                               ; preds = %7
  %12 = getelementptr inbounds nuw i8, ptr %3, i64 88
  %13 = load ptr, ptr %12, align 8, !tbaa !13
  %14 = icmp eq ptr %13, null
  br i1 %14, label %27, label %15

15:                                               ; preds = %11
  %16 = getelementptr inbounds nuw i8, ptr %3, i64 96
  %17 = load ptr, ptr %16, align 8, !tbaa !14
  %18 = icmp eq ptr %17, null
  br i1 %18, label %27, label %19

19:                                               ; preds = %15
  %20 = getelementptr inbounds nuw i8, ptr %3, i64 120
  %21 = load ptr, ptr %20, align 8, !tbaa !15
  %22 = icmp eq ptr %21, null
  br i1 %22, label %27, label %23

23:                                               ; preds = %19
  %24 = getelementptr inbounds nuw i8, ptr %3, i64 168
  %25 = load ptr, ptr %24, align 8, !tbaa !16
  %26 = icmp ne ptr %25, null
  %spec.select = zext i1 %26 to i32
  br label %27

27:                                               ; preds = %23, %1, %7, %11, %15, %19
  %.0 = phi i32 [ 0, %19 ], [ 0, %15 ], [ 0, %11 ], [ 0, %7 ], [ 0, %1 ], [ %spec.select, %23 ]
  ret i32 %.0
}